; Function Attrs: nounwind uwtable
define hidden zeroext i1 @SDL_DrawPoints(ptr noundef %0, ptr noundef readonly captures(none) %1, i32 noundef %2, i32 noundef %3) local_unnamed_addr #0 {
  %5 = tail call zeroext i1 @SDL_SurfaceValid(ptr noundef %0) #2
  br i1 %5, label %8, label %6

6:                                                ; preds = %4
  %7 = tail call zeroext i1 (ptr, ...) @SDL_SetError_REAL(ptr noundef nonnull @.str, ptr noundef nonnull @.str.4) #2
  br label %.loopexit

8:                                                ; preds = %4
  %9 = getelementptr inbounds nuw i8, ptr %0, i64 56
  %10 = load ptr, ptr %9, align 8
  %11 = getelementptr inbounds nuw i8, ptr %10, i64 4
  %12 = load i8, ptr %11, align 4
  %13 = icmp ult i8 %12, 8
  br i1 %13, label %14, label %16

14:                                               ; preds = %8
  %15 = tail call zeroext i1 (ptr, ...) @SDL_SetError_REAL(ptr noundef nonnull @.str.5) #2
  br label %.loopexit

16:                                               ; preds = %8
  %17 = getelementptr inbounds nuw i8, ptr %0, i64 100
  %18 = load i32, ptr %17, align 4
  %19 = getelementptr inbounds nuw i8, ptr %0, i64 108
  %20 = load i32, ptr %19, align 4
  %21 = add nsw i32 %20, %18
  %22 = getelementptr inbounds nuw i8, ptr %0, i64 104
  %23 = load i32, ptr %22, align 4
  %24 = getelementptr inbounds nuw i8, ptr %0, i64 112
  %25 = load i32, ptr %24, align 4
  %26 = add nsw i32 %25, %23
  %27 = icmp sgt i32 %2, 0
  br i1 %27, label %.lr.ph, label %.loopexit

.lr.ph:                                           ; preds = %16
  %28 = getelementptr inbounds nuw i8, ptr %0, i64 24
  %29 = getelementptr inbounds nuw i8, ptr %0, i64 16
  %30 = trunc i32 %3 to i16
  %31 = trunc i32 %3 to i8
  %wide.trip.count = zext nneg i32 %2 to i64
  br label %32

32:                                               ; preds = %.lr.ph, %71
  %indvars.iv = phi i64 [ 0, %.lr.ph ], [ %indvars.iv.next, %71 ]
  %33 = getelementptr inbounds nuw %struct.SDL_Point, ptr %1, i64 %indvars.iv
  %34 = load i32, ptr %33, align 4
  %35 = getelementptr inbounds nuw i8, ptr %33, i64 4
  %36 = load i32, ptr %35, align 4
  %37 = icmp sge i32 %34, %18
  %.not = icmp slt i32 %34, %21
  %or.cond.not46.not50 = select i1 %37, i1 %.not, i1 false
  %38 = icmp sge i32 %36, %23
  %or.cond43.not48 = select i1 %or.cond.not46.not50, i1 %38, i1 false
  %.not42 = icmp slt i32 %36, %26
  %or.cond44 = select i1 %or.cond43.not48, i1 %.not42, i1 false
  br i1 %or.cond44, label %39, label %71

39:                                               ; preds = %32
  %40 = load ptr, ptr %9, align 8
  %41 = getelementptr inbounds nuw i8, ptr %40, i64 5
  %42 = load i8, ptr %41, align 1
  switch i8 %42, label %71 [
    i8 1, label %43
    i8 2, label %51
    i8 3, label %60
    i8 4, label %62
  ]

43:                                               ; preds = %39
  %44 = load ptr, ptr %28, align 8
  %45 = load i32, ptr %29, align 8
  %46 = mul nsw i32 %45, %36
  %47 = sext i32 %46 to i64
  %48 = getelementptr inbounds i8, ptr %44, i64 %47
  %49 = sext i32 %34 to i64
  %50 = getelementptr inbounds i8, ptr %48, i64 %49
  store i8 %31, ptr %50, align 1
  br label %71

51:                                               ; preds = %39
  %52 = load ptr, ptr %28, align 8
  %53 = load i32, ptr %29, align 8
  %54 = mul nsw i32 %53, %36
  %55 = sext i32 %54 to i64
  %56 = getelementptr inbounds i8, ptr %52, i64 %55
  %57 = shl nsw i32 %34, 1
  %58 = sext i32 %57 to i64
  %59 = getelementptr inbounds i8, ptr %56, i64 %58
  store i16 %30, ptr %59, align 2
  br label %71

60:                                               ; preds = %39
  %61 = tail call zeroext i1 (ptr, ...) @SDL_SetError_REAL(ptr noundef nonnull @.str.3) #2
  br label %.loopexit

62:                                               ; preds = %39
  %63 = load ptr, ptr %28, align 8
  %64 = load i32, ptr %29, align 8
  %65 = mul nsw i32 %64, %36
  %66 = sext i32 %65 to i64
  %67 = getelementptr inbounds i8, ptr %63, i64 %66
  %68 = shl nsw i32 %34, 2
  %69 = sext i32 %68 to i64
  %70 = getelementptr inbounds i8, ptr %67, i64 %69
  store i32 %3, ptr %70, align 4
  br label %71

71:                                               ; preds = %39, %43, %51, %62, %32
  %indvars.iv.next = add nuw nsw i64 %indvars.iv, 1
  %exitcond.not = icmp eq i64 %indvars.iv.next, %wide.trip.count
  br i1 %exitcond.not, label %.loopexit, label %32, !llvm.loop !3

.loopexit:                                        ; preds = %71, %16, %60, %14, %6
  %.0 = phi i1 [ %15, %14 ], [ %61, %60 ], [ %7, %6 ], [ true, %16 ], [ true, %71 ]
  ret i1 %.0
}